; Function Attrs: mustprogress uwtable
define internal fastcc void @_ZN32pxrInternal_v0_24__pxrReserved__12_GLOBAL__N_18_VisitorclERKNS_7VtValueE(ptr dead_on_unwind noalias nocapture writable writeonly align 8 %0, ptr nocapture noundef nonnull readonly align 8 dereferenceable(49) %1, ptr noundef nonnull align 8 dereferenceable(16) %2) unnamed_addr #0 align 2 personality ptr @__gxx_personality_v0 {
  %4 = alloca %"class.pxrInternal_v0_24__pxrReserved__::TfCallContext", align 8
  %5 = alloca %"class.std::__cxx11::basic_string", align 8
  store ptr @.str.1, ptr %4, align 8
  %6 = getelementptr inbounds nuw i8, ptr %4, i64 8
  store ptr @__func__._ZN32pxrInternal_v0_24__pxrReserved__12_GLOBAL__N_18_VisitorclERKNS_7VtValueE, ptr %6, align 8
  %7 = getelementptr inbounds nuw i8, ptr %4, i64 16
  store i64 375, ptr %7, align 8
  %8 = getelementptr inbounds nuw i8, ptr %4, i64 24
  store ptr @__PRETTY_FUNCTION__._ZN32pxrInternal_v0_24__pxrReserved__12_GLOBAL__N_18_VisitorclERKNS_7VtValueE, ptr %8, align 8
  %9 = getelementptr inbounds nuw i8, ptr %4, i64 32
  store i8 0, ptr %9, align 8
  call void @_ZNK32pxrInternal_v0_24__pxrReserved__7VtValue11GetTypeNameB5cxx11Ev(ptr dead_on_unwind nonnull writable sret(%"class.std::__cxx11::basic_string") align 8 %5, ptr noundef nonnull align 8 dereferenceable(16) %2)
  %10 = call noundef ptr @_ZNKSt7__cxx1112basic_stringIcSt11char_traitsIcESaIcEE5c_strEv(ptr noundef nonnull align 8 dereferenceable(32) %5) #21
  invoke void (ptr, ptr, ...) @_ZN32pxrInternal_v0_24__pxrReserved__20Tf_PostWarningHelperERKNS_13TfCallContextEPKcz(ptr noundef nonnull align 8 dereferenceable(33) %4, ptr noundef nonnull @.str.5, ptr noundef %10)
          to label %11 unwind label %24

11:                                               ; preds = %3
  call void @_ZNSt7__cxx1112basic_stringIcSt11char_traitsIcESaIcEED1Ev(ptr noundef nonnull align 8 dereferenceable(32) %5) #21
  %12 = load ptr, ptr %1, align 8
  store ptr %12, ptr %0, align 8
  %13 = getelementptr inbounds nuw i8, ptr %0, i64 8
  %14 = getelementptr inbounds nuw i8, ptr %1, i64 8
  %15 = load ptr, ptr %14, align 8
  store ptr %15, ptr %13, align 8
  %.not.i.i.i = icmp eq ptr %15, null
  br i1 %.not.i.i.i, label %_ZNSt10shared_ptrIN32pxrInternal_v0_24__pxrReserved__16HdDataSourceBaseEEC2INS0_19HdSampledDataSourceEvEERKS_IT_E.exit, label %16

16:                                               ; preds = %11
  %17 = getelementptr inbounds nuw i8, ptr %15, i64 8
  %18 = load i8, ptr @__libc_single_threaded, align 1
  %.not.i.i.i.i = icmp eq i8 %18, 0
  br i1 %.not.i.i.i.i, label %22, label %19

19:                                               ; preds = %16
  %20 = load i32, ptr %17, align 4
  %21 = add nsw i32 %20, 1
  store i32 %21, ptr %17, align 4
  br label %_ZNSt10shared_ptrIN32pxrInternal_v0_24__pxrReserved__16HdDataSourceBaseEEC2INS0_19HdSampledDataSourceEvEERKS_IT_E.exit

22:                                               ; preds = %16
  %23 = atomicrmw volatile add ptr %17, i32 1 acq_rel, align 4
  br label %_ZNSt10shared_ptrIN32pxrInternal_v0_24__pxrReserved__16HdDataSourceBaseEEC2INS0_19HdSampledDataSourceEvEERKS_IT_E.exit

_ZNSt10shared_ptrIN32pxrInternal_v0_24__pxrReserved__16HdDataSourceBaseEEC2INS0_19HdSampledDataSourceEvEERKS_IT_E.exit: ; preds = %11, %19, %22
  ret void

24:                                               ; preds = %3
  %25 = landingpad { ptr, i32 }
          cleanup
  call void @_ZNSt7__cxx1112basic_stringIcSt11char_traitsIcESaIcEED1Ev(ptr noundef nonnull align 8 dereferenceable(32) %5) #21
  resume { ptr, i32 } %25
}